target datalayout = "e-m:e-p270:32:32-p271:32:32-p272:64:64-i64:64-i128:128-f80:128-n8:16:32:64-S128"
target triple = "x86_64-pc-linux-gnu"

%"class.absl::Mutex" = type { %"struct.std::atomic.14" }
%"struct.std::atomic.14" = type { %"struct.std::__atomic_base.15" }
%"struct.std::__atomic_base.15" = type { i64 }
%"struct.absl::SynchEvent" = type { i32, ptr, i64, ptr, ptr, i8, [1 x i8] }

@.str = private unnamed_addr constant [129 x i8] c"generated/home/dtcxzyw/WorkSpace/Projects/compilers/llvm-opt-benchmark/bench/abseil-cpp/abseil-cpp/absl/synchronization/mutex.cc\00", align 1
@.str.34 = private unnamed_addr constant [45 x i8] c"thread should hold write lock on Mutex %p %s\00", align 1
@.str.35 = private unnamed_addr constant [1 x i8] zeroinitializer, align 1

; Function Attrs: mustprogress nounwind uwtable
define linkonce_odr dso_local noundef i32 @_ZStanSt12memory_orderSt23__memory_order_modifier(i32 noundef %0, i32 noundef %1) #5 comdat {
  %3 = alloca i32, align 4
  %4 = alloca i32, align 4
  store i32 %0, ptr %3, align 4, !tbaa !53
  store i32 %1, ptr %4, align 4, !tbaa !181
  %5 = load i32, ptr %3, align 4, !tbaa !53
  %6 = load i32, ptr %4, align 4, !tbaa !181
  %7 = and i32 %5, %6
  ret i32 %7
}

; Function Attrs: alwaysinline mustprogress nounwind uwtable
define linkonce_odr dso_local noundef i64 @_ZNKSt13__atomic_baseIlE4loadESt12memory_order(ptr noundef nonnull align 8 dereferenceable(8) %0, i32 noundef %1) #7 comdat align 2 {
  %3 = alloca ptr, align 8
  %4 = alloca i32, align 4
  %5 = alloca i32, align 4
  %6 = alloca i64, align 8
  store ptr %0, ptr %3, align 8, !tbaa !83
  store i32 %1, ptr %4, align 4, !tbaa !53
  %7 = load ptr, ptr %3, align 8
  call void @llvm.lifetime.start.p0(i64 4, ptr %5) #18
  %8 = load i32, ptr %4, align 4, !tbaa !53
  %9 = call noundef i32 @_ZStanSt12memory_orderSt23__memory_order_modifier(i32 noundef %8, i32 noundef 65535)
  store i32 %9, ptr %5, align 4, !tbaa !53
  br label %10

10:                                               ; preds = %2
  br label %11

11:                                               ; preds = %10
  br label %12

12:                                               ; preds = %11
  br label %13

13:                                               ; preds = %12
  br label %14

14:                                               ; preds = %13
  br label %15

15:                                               ; preds = %14
  %16 = getelementptr inbounds nuw %"struct.std::__atomic_base.15", ptr %7, i32 0, i32 0
  %17 = load i32, ptr %4, align 4, !tbaa !53
  switch i32 %17, label %18 [
    i32 1, label %20
    i32 2, label %20
    i32 5, label %22
  ]

18:                                               ; preds = %15
  %19 = load atomic i64, ptr %16 monotonic, align 8
  store i64 %19, ptr %6, align 8
  br label %24

20:                                               ; preds = %15, %15
  %21 = load atomic i64, ptr %16 acquire, align 8
  store i64 %21, ptr %6, align 8
  br label %24

22:                                               ; preds = %15
  %23 = load atomic i64, ptr %16 seq_cst, align 8
  store i64 %23, ptr %6, align 8
  br label %24

24:                                               ; preds = %22, %20, %18
  %25 = load i64, ptr %6, align 8, !tbaa !32
  call void @llvm.lifetime.end.p0(i64 4, ptr %5) #18
  ret i64 %25
}

; Function Attrs: mustprogress uwtable
define dso_local void @_ZNK4absl5Mutex10AssertHeldEv(ptr noundef nonnull align 8 dereferenceable(8) %0) #0 align 2 {
  %2 = alloca ptr, align 8
  %3 = alloca ptr, align 8
  %4 = alloca ptr, align 8
  store ptr %0, ptr %2, align 8, !tbaa !25
  %5 = load ptr, ptr %2, align 8
  %6 = getelementptr inbounds nuw %"class.absl::Mutex", ptr %5, i32 0, i32 0
  %7 = call noundef i64 @_ZNKSt13__atomic_baseIlE4loadESt12memory_order(ptr noundef nonnull align 8 dereferenceable(8) %6, i32 noundef 0) #18
  %8 = and i64 %7, 8
  %9 = icmp eq i64 %8, 0
  br i1 %9, label %10, label %27

10:                                               ; preds = %1
  call void @llvm.lifetime.start.p0(i64 8, ptr %3) #18
  %11 = call noundef ptr @_ZN4abslL13GetSynchEventEPKv(ptr noundef %5)
  store ptr %11, ptr %3, align 8, !tbaa !55
  br label %12

12:                                               ; preds = %10
  call void @llvm.lifetime.start.p0(i64 8, ptr %4) #18
  store ptr getelementptr (i8, ptr @.str, i64 120), ptr %4, align 8, !tbaa !23
  %13 = load ptr, ptr %3, align 8, !tbaa !55
  %14 = icmp eq ptr %13, null
  br i1 %14, label %15, label %16

15:                                               ; preds = %12
  br label %19

16:                                               ; preds = %12
  %17 = load ptr, ptr %3, align 8, !tbaa !55
  %18 = getelementptr inbounds nuw %"struct.absl::SynchEvent", ptr %17, i32 0, i32 6
  br label %19

19:                                               ; preds = %16, %15
  %20 = phi ptr [ @.str.35, %15 ], [ %18, %16 ]
  %21 = getelementptr inbounds [1 x i8], ptr %20, i64 0, i64 0
  call void (i32, ptr, i32, ptr, ...) @_ZN4absl16raw_log_internal6RawLogENS_11LogSeverityEPKciS3_z(i32 noundef 3, ptr noundef getelementptr (i8, ptr @.str, i64 120), i32 noundef 2500, ptr noundef @.str.34, ptr noundef %5, ptr noundef %21)
  br label %22

22:                                               ; preds = %19
  unreachable

23:                                               ; No predecessors!
  br label %24

24:                                               ; preds = %23
  call void @llvm.lifetime.end.p0(i64 8, ptr %4) #18
  br label %25

25:                                               ; preds = %24
  br label %26

26:                                               ; preds = %25
  call void @llvm.lifetime.end.p0(i64 8, ptr %3) #18
  br label %27

27:                                               ; preds = %26, %1
  ret void
}